Certificate:
    Data:
        Version: 3 (0x2)
        Serial Number:
            56:6b:a6:0c:af:f4:e7:5c:48:23:bb:81:13:16:91:97:96:c0:a4:bb
        Signature Algorithm: sha256WithRSAEncryption
        Issuer: C=RU, ST=Moscow, L=Moscow, O=Kholkhunov0, OU=Root CA, CN=Root CA/emailAddress=kholkhunov0@gmail.com
        Validity
            Not Before: Jan  1 05:05:35 2021 GMT
            Not After : Jan  1 05:05:35 2022 GMT
        Subject: C=RU, ST=Moscow, O=Kholkhunov0, OU=Edge, CN=edge
        Subject Public Key Info:
            Public Key Algorithm: rsaEncryption
                RSA Public-Key: (2048 bit)
                Modulus:
                    00:b1:1b:4d:fa:97:6e:c1:fc:57:66:d8:08:b6:da:
                    36:8f:1c:28:59:92:ea:38:32:7c:bd:30:3a:a3:5c:
                    67:a9:d1:f5:a7:a6:84:39:a5:76:4f:14:4f:05:ae:
                    8b:c8:73:f9:1d:1a:33:56:0b:fa:3b:77:fd:de:80:
                    63:c4:70:1d:0e:fc:36:a9:77:79:02:3a:df:b4:ae:
                    de:ec:1e:25:43:dc:17:f7:cc:06:b5:1a:d8:80:47:
                    d9:f3:ff:cf:e0:92:90:12:fc:f8:1f:ee:83:36:d0:
                    b3:c3:8a:0d:7a:4c:c9:7b:cb:c3:23:73:aa:ee:14:
                    7b:73:b1:40:16:e1:b3:30:6e:3f:06:07:eb:e0:b1:
                    08:df:ff:88:6d:5b:01:c2:82:4c:9a:83:8a:a8:51:
                    4b:55:23:d0:d6:df:67:9e:9f:c7:8c:e1:55:c5:e0:
                    a8:b7:f2:48:24:57:a5:56:e0:23:f3:f8:e6:de:c9:
                    0f:72:38:a1:b8:f1:bf:97:79:b8:69:5c:73:bf:8e:
                    ac:b5:50:c0:cf:4e:83:48:ec:20:e8:c9:8e:ee:52:
                    3a:79:0c:38:c6:1b:ce:8d:e2:de:69:fb:52:b7:d0:
                    2c:57:ef:63:82:fe:db:70:57:a7:17:ce:c1:f6:38:
                    20:bb:e6:38:aa:c8:66:6a:b8:17:5e:d2:75:db:38:
                    5e:f1
                Exponent: 65537 (0x10001)
        X509v3 extensions:
            X509v3 Basic Constraints: 
                CA:FALSE
            Netscape Comment: 
                OpenSSL Generated Certificate
            X509v3 Subject Key Identifier: 
                84:91:04:09:38:00:1D:A3:6D:93:D4:4B:21:16:D2:CF:C4:5C:6D:18
            X509v3 Authority Key Identifier: 
                keyid:CD:38:6C:02:92:7F:CC:B6:15:1B:1F:8E:15:4B:B4:6F:FB:94:B3:6A

            X509v3 Subject Alternative Name: 
                IP Address:192.168.53.10
    Signature Algorithm: sha256WithRSAEncryption
         63:79:0b:9f:9f:0c:bc:0a:46:d2:89:4f:b3:27:0e:b1:10:17:
         ad:b9:db:72:80:ed:f2:02:0e:6c:2d:39:da:3c:e4:db:71:94:
         71:49:28:24:42:47:b5:32:d3:ab:88:41:39:cf:7c:86:4c:f3:
         d4:c4:2c:d7:d6:08:04:2d:bf:96:78:3c:14:92:f7:04:5d:ae:
         1b:77:49:5e:76:de:da:62:41:07:7a:70:c6:77:42:1b:df:83:
         4c:3a:c4:ee:fc:25:9c:71:0c:fa:05:3f:5b:2e:5d:ce:1f:fc:
         a8:87:44:c5:d2:83:1e:31:f5:03:3e:6b:a8:d3:dc:71:7c:01:
         95:5b:60:73:e7:71:5b:07:a1:2d:15:6f:3b:ab:a9:e5:14:08:
         10:8b:1f:d9:5d:eb:59:f2:39:35:33:16:86:04:0d:4e:94:e0:
         e3:a6:2a:da:90:6f:0e:e4:e4:f2:7c:18:0f:61:63:e1:24:ed:
         a4:05:8a:87:24:36:d0:6c:34:0b:3a:48:0e:2b:8f:fe:bc:55:
         22:7c:1b:f9:63:51:ad:cf:d5:37:fd:fe:4f:02:5d:77:85:2e:
         61:99:18:84:eb:a1:20:7c:d9:84:58:6d:c8:22:d1:3e:75:fa:
         14:3f:a5:81:e9:a5:76:83:df:36:60:e8:85:b6:d2:a7:32:fb:
         98:ca:2a:d3
-----BEGIN CERTIFICATE-----
MIID/jCCAuagAwIBAgIUVmumDK/051xII7uBExaRl5bApLswDQYJKoZIhvcNAQEL
BQAwgY8xCzAJBgNVBAYTAlJVMQ8wDQYDVQQIDAZNb3Njb3cxDzANBgNVBAcMBk1v
c2NvdzEUMBIGA1UECgwLS2hvbGtodW5vdjAxEDAOBgNVBAsMB1Jvb3QgQ0ExEDAO
BgNVBAMMB1Jvb3QgQ0ExJDAiBgkqhkiG9w0BCQEWFWtob2xraHVub3YwQGdtYWls
LmNvbTAeFw0yMTAxMDEwNTA1MzVaFw0yMjAxMDEwNTA1MzVaMFIxCzAJBgNVBAYT
AlJVMQ8wDQYDVQQIDAZNb3Njb3cxFDASBgNVBAoMC0tob2xraHVub3YwMQ0wCwYD
VQQLDARFZGdlMQ0wCwYDVQQDDARlZGdlMIIBIjANBgkqhkiG9w0BAQEFAAOCAQ8A
MIIBCgKCAQEAsRtN+pduwfxXZtgItto2jxwoWZLqODJ8vTA6o1xnqdH1p6aEOaV2
TxRPBa6LyHP5HRozVgv6O3f93oBjxHAdDvw2qXd5AjrftK7e7B4lQ9wX98wGtRrY
gEfZ8//P4JKQEvz4H+6DNtCzw4oNekzJe8vDI3Oq7hR7c7FAFuGzMG4/Bgfr4LEI
3/+IbVsBwoJMmoOKqFFLVSPQ1t9nnp/HjOFVxeCot/JIJFelVuAj8/jm3skPcjih
uPG/l3m4aVxzv46stVDAz06DSOwg6MmO7lI6eQw4xhvOjeLeaftSt9AsV+9jgv7b
cFenF87B9jggu+Y4qshmargXXtJ12zhe8QIDAQABo4GNMIGKMAkGA1UdEwQCMAAw
LAYJYIZIAYb4QgENBB8WHU9wZW5TU0wgR2VuZXJhdGVkIENlcnRpZmljYXRlMB0G
A1UdDgQWBBSEkQQJOAAdo22T1EshFtLPxFxtGDAfBgNVHSMEGDAWgBTNOGwCkn/M
thUbH44VS7Rv+5SzajAPBgNVHREECDAGhwTAqDUKMA0GCSqGSIb3DQEBCwUAA4IB
AQBjeQufnwy8CkbSiU+zJw6xEBetudtygO3yAg5sLTnaPOTbcZRxSSgkQke1MtOr
iEE5z3yGTPPUxCzX1ggELb+WeDwUkvcEXa4bd0ledt7aYkEHenDGd0Ib34NMOsTu
/CWccQz6BT9bLl3OH/yoh0TF0oMeMfUDPmuo09xxfAGVW2Bz53FbB6EtFW87q6nl
FAgQix/ZXetZ8jk1MxaGBA1OlODjpirakG8O5OTyfBgPYWPhJO2kBYqHJDbQbDQL
OkgOK4/+vFUifBv5Y1Gtz9U3/f5PAl13hS5hmRiE66EgfNmEWG3IItE+dfoUP6WB
6aV2g982YOiFttKnMvuYyirT
-----END CERTIFICATE-----
