Certificate:
    Data:
        Version: 1 (0x0)
        Serial Number:
            2f:2e:73:e1:8b:ed:32:e4:d3:5a:81:37:e1:0a:25:b0:33:59:21:8a
        Signature Algorithm: sha256WithRSAEncryption
        Issuer: C = RU, ST = Moscow, L = Moscow, O = Belenot, OU = CA, CN = ca.belenot.com, emailAddress = kholhunov0@gmail.com
        Validity
            Not Before: Feb  6 10:41:27 2021 GMT
            Not After : Feb  6 10:41:27 2024 GMT
        Subject: C = RU, ST = Moscow, L = Moscow, O = Belenot, OU = CA, CN = ca.belenot.com, emailAddress = kholhunov0@gmail.com
        Subject Public Key Info:
            Public Key Algorithm: rsaEncryption
                RSA Public-Key: (4096 bit)
                Modulus:
                    00:ea:c3:63:eb:e5:ed:e3:99:8c:ee:1d:f2:c1:c4:
                    b5:dd:2a:35:50:26:56:70:7d:fb:cc:76:2a:7f:34:
                    32:30:c3:39:81:2c:88:56:3c:bb:4e:e1:19:85:9a:
                    70:4d:fc:67:eb:e7:d9:5e:1f:be:0f:94:71:42:aa:
                    36:62:44:ef:aa:7a:fe:ab:f8:c7:42:9b:70:0e:63:
                    96:fb:87:4b:71:eb:a8:78:5f:5d:b8:52:7e:90:6a:
                    06:f6:8b:e7:b1:dc:42:cd:df:6a:fb:7b:79:64:f2:
                    2d:d3:e0:3b:d5:67:51:30:f4:f6:04:80:e1:cb:2c:
                    87:30:69:ce:6a:19:c4:99:e7:81:ce:90:a6:5f:3d:
                    e1:7c:82:b0:d6:63:4c:5c:c1:d5:30:6b:94:66:0f:
                    ef:57:c7:78:77:c1:67:e3:dc:ca:08:a5:75:fe:e4:
                    6e:98:5c:53:a6:2f:fb:6a:d8:46:7d:66:2c:41:81:
                    69:aa:f1:3e:01:ce:92:c7:95:6e:c9:9b:d1:71:8e:
                    1d:9f:4d:8e:92:ea:ee:5b:fd:6a:8e:6a:f3:99:41:
                    f9:fc:32:66:13:8c:7c:a2:ba:98:5b:bf:e5:1c:e2:
                    a1:a2:e3:de:13:45:e6:64:ed:b6:ce:59:40:a8:21:
                    e6:2d:cb:f1:b2:1b:72:21:b1:e4:dd:9b:0e:cc:53:
                    d4:d4:33:ab:5f:7e:3b:47:73:28:7f:10:c6:62:3c:
                    3a:af:38:7a:6b:8d:fc:b6:e4:f1:01:c6:53:20:53:
                    be:8e:21:0a:ea:c0:b8:13:4b:8b:38:b0:be:05:ae:
                    83:86:26:c2:fc:c0:18:21:10:75:4f:8f:3e:72:7b:
                    80:af:70:90:f9:12:fe:fc:ec:db:be:5c:fa:94:a7:
                    9d:c2:ce:48:5f:c9:6e:91:0e:08:65:7c:e6:36:e4:
                    b2:cf:55:f2:c9:eb:f5:dc:29:f0:ad:28:5a:54:99:
                    e2:13:f0:18:5a:3e:86:6c:c5:dc:da:39:ce:6c:88:
                    a4:64:18:76:5a:43:56:4a:23:89:fa:97:b4:40:1c:
                    76:7c:0f:4e:ae:3d:6c:4d:35:2e:4a:a4:b0:f7:a7:
                    ee:bf:43:cc:b7:4a:0b:e5:3f:c7:a6:01:71:ca:0f:
                    94:9d:8e:c0:fa:f5:23:7c:1a:d2:06:1e:e5:2f:78:
                    40:9d:af:26:5d:bc:65:98:31:0b:e4:bd:4c:68:e7:
                    a8:fe:40:c0:09:2b:44:45:33:b8:8f:26:cc:10:4d:
                    8b:1c:e7:a4:69:fa:f4:11:49:93:0a:6d:e2:f7:67:
                    e8:da:cb:76:d8:bb:2b:02:62:29:17:b4:41:c8:2f:
                    68:68:9a:e9:1e:87:ec:12:72:73:e9:8e:76:e0:24:
                    74:da:49
                Exponent: 65537 (0x10001)
    Signature Algorithm: sha256WithRSAEncryption
         69:4a:6b:f2:ff:e5:13:6e:34:a4:e1:fb:7d:da:89:22:d5:82:
         89:00:76:d5:e5:dd:34:3a:15:9c:60:e7:28:da:de:71:bb:29:
         12:ed:0c:c4:0d:6d:3e:ab:43:c6:34:09:a1:a0:c0:be:e7:dd:
         cf:e2:da:22:e9:9a:eb:77:11:00:5e:20:9a:f0:b3:e7:39:0d:
         83:87:9f:e6:83:77:3b:de:5e:17:e4:f7:55:9a:df:87:73:42:
         c6:37:dc:15:4b:0e:6f:84:ec:6f:51:d5:5c:6d:05:e3:89:7c:
         f6:5d:7a:81:aa:19:f4:b3:50:71:69:35:09:79:de:72:5f:2b:
         ce:ee:3c:db:98:ee:c7:53:64:00:ca:d0:40:a7:ee:64:8e:7b:
         c8:24:6c:86:55:86:b2:18:66:f7:2e:8d:8e:ef:e0:7a:fb:27:
         c0:19:9a:9e:15:0c:bf:40:21:84:c7:c8:23:93:09:0e:66:a8:
         79:d1:4f:01:2b:01:26:69:d2:54:c4:28:35:3d:6e:73:b3:6a:
         fd:80:db:c6:14:3f:ec:8a:ed:e6:80:d2:40:2f:58:53:75:bc:
         41:87:60:c0:c7:95:07:a7:98:0c:57:fb:ae:8e:60:49:e0:c7:
         f0:eb:96:f4:85:e2:1d:c3:24:86:45:79:76:40:f1:c2:06:5e:
         3c:7a:63:8e:96:7a:29:2f:9b:48:98:79:54:9b:9f:ee:e3:60:
         ea:9a:c1:0b:5d:b5:a8:32:42:67:cb:80:bb:71:2f:20:44:0e:
         c7:e5:ec:75:00:db:82:56:32:11:f3:d8:fe:7f:d6:7d:ed:79:
         72:48:a9:0d:23:0e:c0:3e:41:b4:11:4f:42:a1:f9:f5:92:5b:
         d6:dd:7b:00:4a:b6:0f:01:da:7a:1e:fc:f9:6b:e8:cf:7d:b9:
         b4:c4:6c:d4:9f:b7:98:18:b6:f8:aa:3a:46:28:ba:fa:78:d9:
         94:96:9f:e0:a0:bd:23:aa:45:a7:43:73:8f:24:e9:5b:f5:ab:
         7c:03:38:17:a5:6c:80:fb:e4:71:2a:3a:04:87:ba:06:be:08:
         f2:83:2c:61:83:29:86:e5:a1:86:19:ec:44:ad:54:84:2b:71:
         8c:91:2d:2c:e5:4e:29:7a:ed:c5:6b:83:bd:c5:15:4b:ed:90:
         db:79:5b:63:63:7c:95:d8:09:a5:88:24:0f:ea:fd:49:73:d4:
         0a:eb:20:cd:81:a3:32:55:7c:65:13:02:8f:a4:30:ff:c6:41:
         bb:e5:5f:51:e1:c0:da:c8:ff:39:9c:f5:e0:59:2f:70:e0:eb:
         ef:90:a1:70:c2:6e:f9:5d:d2:65:f1:e4:5a:84:d3:2c:98:3b:
         05:54:28:88:95:04:f1:1f
-----BEGIN CERTIFICATE-----
MIIFoTCCA4kCFC8uc+GL7TLk01qBN+EKJbAzWSGKMA0GCSqGSIb3DQEBCwUAMIGM
MQswCQYDVQQGEwJSVTEPMA0GA1UECAwGTW9zY293MQ8wDQYDVQQHDAZNb3Njb3cx
EDAOBgNVBAoMB0JlbGVub3QxCzAJBgNVBAsMAkNBMRcwFQYDVQQDDA5jYS5iZWxl
bm90LmNvbTEjMCEGCSqGSIb3DQEJARYUa2hvbGh1bm92MEBnbWFpbC5jb20wHhcN
MjEwMjA2MTA0MTI3WhcNMjQwMjA2MTA0MTI3WjCBjDELMAkGA1UEBhMCUlUxDzAN
BgNVBAgMBk1vc2NvdzEPMA0GA1UEBwwGTW9zY293MRAwDgYDVQQKDAdCZWxlbm90
MQswCQYDVQQLDAJDQTEXMBUGA1UEAwwOY2EuYmVsZW5vdC5jb20xIzAhBgkqhkiG
9w0BCQEWFGtob2xodW5vdjBAZ21haWwuY29tMIICIjANBgkqhkiG9w0BAQEFAAOC
Ag8AMIICCgKCAgEA6sNj6+Xt45mM7h3ywcS13So1UCZWcH37zHYqfzQyMMM5gSyI
Vjy7TuEZhZpwTfxn6+fZXh++D5RxQqo2YkTvqnr+q/jHQptwDmOW+4dLceuoeF9d
uFJ+kGoG9ovnsdxCzd9q+3t5ZPIt0+A71WdRMPT2BIDhyyyHMGnOahnEmeeBzpCm
Xz3hfIKw1mNMXMHVMGuUZg/vV8d4d8Fn49zKCKV1/uRumFxTpi/7athGfWYsQYFp
qvE+Ac6Sx5VuyZvRcY4dn02OkuruW/1qjmrzmUH5/DJmE4x8orqYW7/lHOKhouPe
E0XmZO22zllAqCHmLcvxshtyIbHk3ZsOzFPU1DOrX347R3MofxDGYjw6rzh6a438
tuTxAcZTIFO+jiEK6sC4E0uLOLC+Ba6DhibC/MAYIRB1T48+cnuAr3CQ+RL+/Ozb
vlz6lKedws5IX8lukQ4IZXzmNuSyz1Xyyev13CnwrShaVJniE/AYWj6GbMXc2jnO
bIikZBh2WkNWSiOJ+pe0QBx2fA9Orj1sTTUuSqSw96fuv0PMt0oL5T/HpgFxyg+U
nY7A+vUjfBrSBh7lL3hAna8mXbxlmDEL5L1MaOeo/kDACStERTO4jybMEE2LHOek
afr0EUmTCm3i92fo2st22LsrAmIpF7RByC9oaJrpHofsEnJz6Y524CR02kkCAwEA
ATANBgkqhkiG9w0BAQsFAAOCAgEAaUpr8v/lE240pOH7fdqJItWCiQB21eXdNDoV
nGDnKNrecbspEu0MxA1tPqtDxjQJoaDAvufdz+LaIuma63cRAF4gmvCz5zkNg4ef
5oN3O95eF+T3VZrfh3NCxjfcFUsOb4Tsb1HVXG0F44l89l16gaoZ9LNQcWk1CXne
cl8rzu4825jux1NkAMrQQKfuZI57yCRshlWGshhm9y6Nju/gevsnwBmanhUMv0Ah
hMfII5MJDmaoedFPASsBJmnSVMQoNT1uc7Nq/YDbxhQ/7Irt5oDSQC9YU3W8QYdg
wMeVB6eYDFf7ro5gSeDH8OuW9IXiHcMkhkV5dkDxwgZePHpjjpZ6KS+bSJh5VJuf
7uNg6prBC121qDJCZ8uAu3EvIEQOx+XsdQDbglYyEfPY/n/Wfe15ckipDSMOwD5B
tBFPQqH59ZJb1t17AEq2DwHaeh78+Wvoz325tMRs1J+3mBi2+Ko6Rii6+njZlJaf
4KC9I6pFp0NzjyTpW/WrfAM4F6VsgPvkcSo6BIe6Br4I8oMsYYMphuWhhhnsRK1U
hCtxjJEtLOVOKXrtxWuDvcUVS+2Q23lbY2N8ldgJpYgkD+r9SXPUCusgzYGjMlV8
ZRMCj6Qw/8ZBu+VfUeHA2sj/OZz14FkvcODr75ChcMJu+V3SZfHkWoTTLJg7BVQo
iJUE8R8=
-----END CERTIFICATE-----
