Certificate:
    Data:
        Version: 3 (0x2)
        Serial Number:
            5d:69:22:f0:0b:5f:d6:2b:f8:b0:40:41:1f:e9:9d:06:7a:39:40:b5
        Signature Algorithm: sha256WithRSAEncryption
        Issuer: C=RU, ST=Moscow, L=Moscow, O=Kholkhunov0, OU=Root CA, CN=Root CA/emailAddress=kholkhunov0@gmail.com
        Validity
            Not Before: Dec 31 10:13:20 2020 GMT
            Not After : Dec 31 10:13:20 2021 GMT
        Subject: C=RU, ST=Moscow, O=Kholkhunov0, OU=Edge Proxy, CN=Edge Proxy
        Subject Public Key Info:
            Public Key Algorithm: rsaEncryption
                RSA Public-Key: (2048 bit)
                Modulus:
                    00:c1:13:94:02:84:09:0d:3c:db:6d:ac:17:43:e0:
                    f0:05:19:c0:6e:f0:9e:4c:44:db:ab:09:34:d3:b8:
                    03:36:3b:39:89:8f:c0:61:55:a0:3f:8e:2a:8b:69:
                    b5:c9:91:32:19:5f:6c:09:b1:6f:60:0c:da:c2:60:
                    da:57:ec:6b:dd:ab:ad:27:69:95:e5:1a:da:3b:20:
                    01:89:a3:92:92:57:01:1d:73:10:fc:70:29:e1:f4:
                    ec:6e:cc:7b:29:0f:ea:92:fc:3b:75:da:4f:82:76:
                    ce:a1:24:60:a3:3a:9c:7a:a6:29:7b:d0:5a:36:d6:
                    32:17:ef:1e:b0:ce:bc:9a:b5:70:d9:e7:fb:b7:b8:
                    ad:fc:43:ad:fb:14:9a:68:bb:d0:a4:18:39:92:01:
                    30:66:0b:89:d6:d4:37:cc:cd:ea:dc:f7:b6:d0:53:
                    de:d8:48:67:95:b3:65:0a:8f:8f:b1:a6:ea:71:fc:
                    17:89:0b:a7:a5:a6:b2:ed:1d:76:9b:c0:6a:9f:04:
                    1d:30:b3:d6:9c:5a:7b:07:5a:86:60:1a:0b:6b:5e:
                    76:76:b7:c5:0e:3b:e4:3c:8f:b5:76:36:57:78:e5:
                    5f:4c:fa:33:d8:33:f2:2e:c7:8c:6b:30:dc:a3:b3:
                    3c:c1:68:ef:15:82:7c:65:89:7b:a4:e4:7b:5c:dc:
                    cf:c5
                Exponent: 65537 (0x10001)
        X509v3 extensions:
            X509v3 Basic Constraints: 
                CA:FALSE
            Netscape Comment: 
                OpenSSL Generated Certificate
            X509v3 Subject Key Identifier: 
                F1:EB:7D:46:D9:55:DD:3D:A8:13:8A:0B:9E:3E:36:37:E9:BF:48:DD
            X509v3 Authority Key Identifier: 
                keyid:CD:38:6C:02:92:7F:CC:B6:15:1B:1F:8E:15:4B:B4:6F:FB:94:B3:6A

            X509v3 Subject Alternative Name: 
                DNS:localhost
    Signature Algorithm: sha256WithRSAEncryption
         1f:e3:47:66:33:ee:94:87:36:8d:cd:63:b0:62:02:44:19:47:
         cf:8c:77:07:46:d7:36:68:29:f4:46:e6:10:42:b1:05:4a:96:
         09:25:22:d7:4f:75:e1:a9:c0:49:5f:58:93:3b:c6:4e:6b:d9:
         a0:77:50:99:37:6e:ed:44:f1:c2:94:76:aa:3a:6a:cf:47:d3:
         f4:83:e7:77:85:f7:e7:97:21:16:a9:e7:0b:08:09:7a:03:12:
         f6:f8:41:bf:3d:ab:01:71:6c:a0:e0:fc:f1:e4:38:63:78:9f:
         59:72:e8:cc:a4:d3:ea:ca:76:89:48:ac:17:79:e8:05:f1:ca:
         85:d2:f4:55:b1:d4:36:ed:72:16:63:ae:a9:84:44:e8:86:37:
         d0:4e:80:74:04:4f:42:6b:1e:14:86:6c:77:d2:35:32:a6:2e:
         98:b6:d6:f4:c6:af:2f:64:c2:be:f5:b7:79:dd:bf:db:19:bb:
         90:1a:ba:fc:7d:bf:59:5d:37:2d:34:ae:4f:45:51:ef:1f:6c:
         0c:fe:e7:fd:fe:76:8a:0f:db:28:ed:45:01:22:9a:b6:e4:85:
         04:ff:8c:78:59:62:d1:22:46:02:7b:27:2a:1e:50:ba:19:2b:
         c5:2a:46:e9:1f:6f:d1:4b:ab:22:b6:b7:43:c8:9f:2e:8b:67:
         0b:d6:ca:44
-----BEGIN CERTIFICATE-----
MIIEDzCCAvegAwIBAgIUXWki8Atf1iv4sEBBH+mdBno5QLUwDQYJKoZIhvcNAQEL
BQAwgY8xCzAJBgNVBAYTAlJVMQ8wDQYDVQQIDAZNb3Njb3cxDzANBgNVBAcMBk1v
c2NvdzEUMBIGA1UECgwLS2hvbGtodW5vdjAxEDAOBgNVBAsMB1Jvb3QgQ0ExEDAO
BgNVBAMMB1Jvb3QgQ0ExJDAiBgkqhkiG9w0BCQEWFWtob2xraHVub3YwQGdtYWls
LmNvbTAeFw0yMDEyMzExMDEzMjBaFw0yMTEyMzExMDEzMjBaMF4xCzAJBgNVBAYT
AlJVMQ8wDQYDVQQIDAZNb3Njb3cxFDASBgNVBAoMC0tob2xraHVub3YwMRMwEQYD
VQQLDApFZGdlIFByb3h5MRMwEQYDVQQDDApFZGdlIFByb3h5MIIBIjANBgkqhkiG
9w0BAQEFAAOCAQ8AMIIBCgKCAQEAwROUAoQJDTzbbawXQ+DwBRnAbvCeTETbqwk0
07gDNjs5iY/AYVWgP44qi2m1yZEyGV9sCbFvYAzawmDaV+xr3autJ2mV5RraOyAB
iaOSklcBHXMQ/HAp4fTsbsx7KQ/qkvw7ddpPgnbOoSRgozqceqYpe9BaNtYyF+8e
sM68mrVw2ef7t7it/EOt+xSaaLvQpBg5kgEwZguJ1tQ3zM3q3Pe20FPe2EhnlbNl
Co+PsabqcfwXiQunpaay7R12m8BqnwQdMLPWnFp7B1qGYBoLa152drfFDjvkPI+1
djZXeOVfTPoz2DPyLseMazDco7M8wWjvFYJ8ZYl7pOR7XNzPxQIDAQABo4GSMIGP
MAkGA1UdEwQCMAAwLAYJYIZIAYb4QgENBB8WHU9wZW5TU0wgR2VuZXJhdGVkIENl
cnRpZmljYXRlMB0GA1UdDgQWBBTx631G2VXdPagTiguePjY36b9I3TAfBgNVHSME
GDAWgBTNOGwCkn/MthUbH44VS7Rv+5SzajAUBgNVHREEDTALgglsb2NhbGhvc3Qw
DQYJKoZIhvcNAQELBQADggEBAB/jR2Yz7pSHNo3NY7BiAkQZR8+MdwdG1zZoKfRG
5hBCsQVKlgklItdPdeGpwElfWJM7xk5r2aB3UJk3bu1E8cKUdqo6as9H0/SD53eF
9+eXIRap5wsICXoDEvb4Qb89qwFxbKDg/PHkOGN4n1ly6Myk0+rKdolIrBd56AXx
yoXS9FWx1DbtchZjrqmEROiGN9BOgHQET0JrHhSGbHfSNTKmLpi21vTGry9kwr71
t3ndv9sZu5Aauvx9v1ldNy00rk9FUe8fbAz+5/3+dooP2yjtRQEimrbkhQT/jHhZ
YtEiRgJ7JyoeULoZK8UqRukfb9FLqyK2t0PIny6LZwvWykQ=
-----END CERTIFICATE-----
