Certificate:
    Data:
        Version: 3 (0x2)
        Serial Number:
            56:6b:a6:0c:af:f4:e7:5c:48:23:bb:81:13:16:91:97:96:c0:a4:bc
        Signature Algorithm: sha256WithRSAEncryption
        Issuer: C=RU, ST=Moscow, L=Moscow, O=Kholkhunov0, OU=Root CA, CN=Root CA/emailAddress=kholkhunov0@gmail.com
        Validity
            Not Before: Jan  1 05:09:34 2021 GMT
            Not After : Jan  1 05:09:34 2022 GMT
        Subject: C=RU, ST=Moscow, O=Kholkhunov0, OU=Edge, CN=belenot.com
        Subject Public Key Info:
            Public Key Algorithm: rsaEncryption
                RSA Public-Key: (2048 bit)
                Modulus:
                    00:b1:1b:4d:fa:97:6e:c1:fc:57:66:d8:08:b6:da:
                    36:8f:1c:28:59:92:ea:38:32:7c:bd:30:3a:a3:5c:
                    67:a9:d1:f5:a7:a6:84:39:a5:76:4f:14:4f:05:ae:
                    8b:c8:73:f9:1d:1a:33:56:0b:fa:3b:77:fd:de:80:
                    63:c4:70:1d:0e:fc:36:a9:77:79:02:3a:df:b4:ae:
                    de:ec:1e:25:43:dc:17:f7:cc:06:b5:1a:d8:80:47:
                    d9:f3:ff:cf:e0:92:90:12:fc:f8:1f:ee:83:36:d0:
                    b3:c3:8a:0d:7a:4c:c9:7b:cb:c3:23:73:aa:ee:14:
                    7b:73:b1:40:16:e1:b3:30:6e:3f:06:07:eb:e0:b1:
                    08:df:ff:88:6d:5b:01:c2:82:4c:9a:83:8a:a8:51:
                    4b:55:23:d0:d6:df:67:9e:9f:c7:8c:e1:55:c5:e0:
                    a8:b7:f2:48:24:57:a5:56:e0:23:f3:f8:e6:de:c9:
                    0f:72:38:a1:b8:f1:bf:97:79:b8:69:5c:73:bf:8e:
                    ac:b5:50:c0:cf:4e:83:48:ec:20:e8:c9:8e:ee:52:
                    3a:79:0c:38:c6:1b:ce:8d:e2:de:69:fb:52:b7:d0:
                    2c:57:ef:63:82:fe:db:70:57:a7:17:ce:c1:f6:38:
                    20:bb:e6:38:aa:c8:66:6a:b8:17:5e:d2:75:db:38:
                    5e:f1
                Exponent: 65537 (0x10001)
        X509v3 extensions:
            X509v3 Basic Constraints: 
                CA:FALSE
            Netscape Comment: 
                OpenSSL Generated Certificate
            X509v3 Subject Key Identifier: 
                84:91:04:09:38:00:1D:A3:6D:93:D4:4B:21:16:D2:CF:C4:5C:6D:18
            X509v3 Authority Key Identifier: 
                keyid:CD:38:6C:02:92:7F:CC:B6:15:1B:1F:8E:15:4B:B4:6F:FB:94:B3:6A

            X509v3 Subject Alternative Name: 
                DNS:belenot.com
    Signature Algorithm: sha256WithRSAEncryption
         9f:c2:e4:77:19:65:5f:33:e0:a7:a0:43:9a:6d:71:16:1b:f0:
         56:06:6b:ae:8f:ff:a3:ce:42:b3:aa:de:ef:a0:0f:c1:01:bb:
         c3:70:2a:6b:ab:39:98:37:d8:40:ec:aa:92:23:ec:5d:a1:6b:
         0b:8c:24:d4:14:65:36:9c:b9:46:b1:cb:42:b0:8d:b4:c9:75:
         d7:b5:8c:72:03:cd:72:9c:8a:0d:ee:db:0b:9b:13:68:f3:ba:
         9a:a7:f9:cc:3f:e8:16:c1:fc:d6:56:b7:3d:cb:96:38:5d:c3:
         61:13:a9:b5:5e:a3:3c:f5:43:b7:20:74:e0:d3:fa:4e:cf:98:
         36:41:26:3e:66:cc:a8:8b:e7:99:76:da:11:19:94:06:b4:c7:
         48:c8:15:52:c3:b5:d0:7a:34:88:c2:4a:f7:c3:48:77:0f:08:
         68:72:4d:98:3e:3d:11:d5:ca:b0:9b:49:3b:40:26:20:0f:e3:
         2d:50:c8:ed:72:9c:59:d0:a6:78:e1:06:9a:93:43:8a:e2:57:
         a8:4b:75:07:f5:1f:cd:7c:72:28:a7:7d:1d:a0:ae:63:77:f9:
         de:45:28:45:e7:3f:ee:7c:72:15:54:3b:c3:15:8c:01:3a:b9:
         6e:e2:b9:0a:17:81:07:99:39:f6:d4:2c:cd:1a:ff:99:d0:49:
         42:55:ad:24
-----BEGIN CERTIFICATE-----
MIIEDDCCAvSgAwIBAgIUVmumDK/051xII7uBExaRl5bApLwwDQYJKoZIhvcNAQEL
BQAwgY8xCzAJBgNVBAYTAlJVMQ8wDQYDVQQIDAZNb3Njb3cxDzANBgNVBAcMBk1v
c2NvdzEUMBIGA1UECgwLS2hvbGtodW5vdjAxEDAOBgNVBAsMB1Jvb3QgQ0ExEDAO
BgNVBAMMB1Jvb3QgQ0ExJDAiBgkqhkiG9w0BCQEWFWtob2xraHVub3YwQGdtYWls
LmNvbTAeFw0yMTAxMDEwNTA5MzRaFw0yMjAxMDEwNTA5MzRaMFkxCzAJBgNVBAYT
AlJVMQ8wDQYDVQQIDAZNb3Njb3cxFDASBgNVBAoMC0tob2xraHVub3YwMQ0wCwYD
VQQLDARFZGdlMRQwEgYDVQQDDAtiZWxlbm90LmNvbTCCASIwDQYJKoZIhvcNAQEB
BQADggEPADCCAQoCggEBALEbTfqXbsH8V2bYCLbaNo8cKFmS6jgyfL0wOqNcZ6nR
9aemhDmldk8UTwWui8hz+R0aM1YL+jt3/d6AY8RwHQ78Nql3eQI637Su3uweJUPc
F/fMBrUa2IBH2fP/z+CSkBL8+B/ugzbQs8OKDXpMyXvLwyNzqu4Ue3OxQBbhszBu
PwYH6+CxCN//iG1bAcKCTJqDiqhRS1Uj0NbfZ56fx4zhVcXgqLfySCRXpVbgI/P4
5t7JD3I4objxv5d5uGlcc7+OrLVQwM9Og0jsIOjJju5SOnkMOMYbzo3i3mn7UrfQ
LFfvY4L+23BXpxfOwfY4ILvmOKrIZmq4F17Sdds4XvECAwEAAaOBlDCBkTAJBgNV
HRMEAjAAMCwGCWCGSAGG+EIBDQQfFh1PcGVuU1NMIEdlbmVyYXRlZCBDZXJ0aWZp
Y2F0ZTAdBgNVHQ4EFgQUhJEECTgAHaNtk9RLIRbSz8RcbRgwHwYDVR0jBBgwFoAU
zThsApJ/zLYVGx+OFUu0b/uUs2owFgYDVR0RBA8wDYILYmVsZW5vdC5jb20wDQYJ
KoZIhvcNAQELBQADggEBAJ/C5HcZZV8z4KegQ5ptcRYb8FYGa66P/6POQrOq3u+g
D8EBu8NwKmurOZg32EDsqpIj7F2hawuMJNQUZTacuUaxy0KwjbTJdde1jHIDzXKc
ig3u2wubE2jzupqn+cw/6BbB/NZWtz3Lljhdw2ETqbVeozz1Q7cgdODT+k7PmDZB
Jj5mzKiL55l22hEZlAa0x0jIFVLDtdB6NIjCSvfDSHcPCGhyTZg+PRHVyrCbSTtA
JiAP4y1QyO1ynFnQpnjhBpqTQ4riV6hLdQf1H818ciinfR2grmN3+d5FKEXnP+58
chVUO8MVjAE6uW7iuQoXgQeZOfbULM0a/5nQSUJVrSQ=
-----END CERTIFICATE-----
