Certificate:
    Data:
        Version: 3 (0x2)
        Serial Number:
            56:6b:a6:0c:af:f4:e7:5c:48:23:bb:81:13:16:91:97:96:c0:a4:bd
        Signature Algorithm: sha256WithRSAEncryption
        Issuer: C=RU, ST=Moscow, L=Moscow, O=KholkhunovS, CN=KholkhunovS Root CA/emailAddress=kholkhunovs@gmail.com
        Validity
            Not Before: Jan  3 16:48:27 2021 GMT
            Not After : Jan  3 16:48:27 2022 GMT
        Subject: C=RU, ST=Moscow, O=KholkhunovS, OU=Edge, CN=belenot.com
        Subject Public Key Info:
            Public Key Algorithm: rsaEncryption
                RSA Public-Key: (2048 bit)
                Modulus:
                    00:b1:1b:4d:fa:97:6e:c1:fc:57:66:d8:08:b6:da:
                    36:8f:1c:28:59:92:ea:38:32:7c:bd:30:3a:a3:5c:
                    67:a9:d1:f5:a7:a6:84:39:a5:76:4f:14:4f:05:ae:
                    8b:c8:73:f9:1d:1a:33:56:0b:fa:3b:77:fd:de:80:
                    63:c4:70:1d:0e:fc:36:a9:77:79:02:3a:df:b4:ae:
                    de:ec:1e:25:43:dc:17:f7:cc:06:b5:1a:d8:80:47:
                    d9:f3:ff:cf:e0:92:90:12:fc:f8:1f:ee:83:36:d0:
                    b3:c3:8a:0d:7a:4c:c9:7b:cb:c3:23:73:aa:ee:14:
                    7b:73:b1:40:16:e1:b3:30:6e:3f:06:07:eb:e0:b1:
                    08:df:ff:88:6d:5b:01:c2:82:4c:9a:83:8a:a8:51:
                    4b:55:23:d0:d6:df:67:9e:9f:c7:8c:e1:55:c5:e0:
                    a8:b7:f2:48:24:57:a5:56:e0:23:f3:f8:e6:de:c9:
                    0f:72:38:a1:b8:f1:bf:97:79:b8:69:5c:73:bf:8e:
                    ac:b5:50:c0:cf:4e:83:48:ec:20:e8:c9:8e:ee:52:
                    3a:79:0c:38:c6:1b:ce:8d:e2:de:69:fb:52:b7:d0:
                    2c:57:ef:63:82:fe:db:70:57:a7:17:ce:c1:f6:38:
                    20:bb:e6:38:aa:c8:66:6a:b8:17:5e:d2:75:db:38:
                    5e:f1
                Exponent: 65537 (0x10001)
        X509v3 extensions:
            X509v3 Basic Constraints: 
                CA:FALSE
            Netscape Comment: 
                OpenSSL Generated Certificate
            X509v3 Subject Key Identifier: 
                84:91:04:09:38:00:1D:A3:6D:93:D4:4B:21:16:D2:CF:C4:5C:6D:18
            X509v3 Authority Key Identifier: 
                keyid:CD:38:6C:02:92:7F:CC:B6:15:1B:1F:8E:15:4B:B4:6F:FB:94:B3:6A

            X509v3 Subject Alternative Name: 
                DNS:belenot.com, DNS:edge.alpha.belenot.com
    Signature Algorithm: sha256WithRSAEncryption
         09:f5:a2:01:ae:2e:42:5a:18:50:08:d0:3f:f3:60:9d:50:f8:
         c0:c0:94:6f:8f:f9:2a:f1:9d:e6:1a:9e:c4:50:fc:bd:73:3a:
         83:0e:bb:da:a5:9c:dd:76:d6:21:86:e0:40:de:28:a5:b4:3f:
         9b:10:0e:21:41:21:0c:ce:15:80:65:63:77:d1:26:5a:3e:1e:
         63:4c:5b:1f:26:b0:8f:a3:45:08:97:09:08:ca:b3:c5:53:c5:
         60:85:c4:9e:82:0c:45:90:4f:ff:b7:76:e9:ea:fe:8b:34:2f:
         e0:06:a8:03:29:bd:c0:74:4f:fc:63:97:db:c7:22:87:a8:8f:
         b2:f7:b4:af:c9:fc:2e:12:fc:4d:87:92:b9:8a:44:16:0e:1c:
         79:c4:60:29:f9:47:03:3e:a3:b9:e7:18:84:9d:59:34:f9:82:
         fd:c7:91:50:d2:be:57:c3:e7:4f:6d:ad:fe:40:f7:21:45:fd:
         dd:3c:09:27:90:97:4c:ae:04:59:15:49:c0:43:07:8b:f4:a2:
         80:2e:c3:bb:a3:ac:6d:d3:7d:01:07:4c:9f:af:04:4d:aa:f6:
         bd:cf:c0:0c:35:1d:dc:3a:5a:fa:f2:d8:ad:5b:56:bf:5a:75:
         20:7e:9e:0b:de:6d:81:5e:f4:48:ee:b6:91:b3:30:25:6b:1f:
         3d:42:40:d6
-----BEGIN CERTIFICATE-----
MIIEHjCCAwagAwIBAgIUVmumDK/051xII7uBExaRl5bApL0wDQYJKoZIhvcNAQEL
BQAwgYkxCzAJBgNVBAYTAlJVMQ8wDQYDVQQIDAZNb3Njb3cxDzANBgNVBAcMBk1v
c2NvdzEUMBIGA1UECgwLS2hvbGtodW5vdlMxHDAaBgNVBAMME0tob2xraHVub3ZT
IFJvb3QgQ0ExJDAiBgkqhkiG9w0BCQEWFWtob2xraHVub3ZzQGdtYWlsLmNvbTAe
Fw0yMTAxMDMxNjQ4MjdaFw0yMjAxMDMxNjQ4MjdaMFkxCzAJBgNVBAYTAlJVMQ8w
DQYDVQQIDAZNb3Njb3cxFDASBgNVBAoMC0tob2xraHVub3ZTMQ0wCwYDVQQLDARF
ZGdlMRQwEgYDVQQDDAtiZWxlbm90LmNvbTCCASIwDQYJKoZIhvcNAQEBBQADggEP
ADCCAQoCggEBALEbTfqXbsH8V2bYCLbaNo8cKFmS6jgyfL0wOqNcZ6nR9aemhDml
dk8UTwWui8hz+R0aM1YL+jt3/d6AY8RwHQ78Nql3eQI637Su3uweJUPcF/fMBrUa
2IBH2fP/z+CSkBL8+B/ugzbQs8OKDXpMyXvLwyNzqu4Ue3OxQBbhszBuPwYH6+Cx
CN//iG1bAcKCTJqDiqhRS1Uj0NbfZ56fx4zhVcXgqLfySCRXpVbgI/P45t7JD3I4
objxv5d5uGlcc7+OrLVQwM9Og0jsIOjJju5SOnkMOMYbzo3i3mn7UrfQLFfvY4L+
23BXpxfOwfY4ILvmOKrIZmq4F17Sdds4XvECAwEAAaOBrDCBqTAJBgNVHRMEAjAA
MCwGCWCGSAGG+EIBDQQfFh1PcGVuU1NMIEdlbmVyYXRlZCBDZXJ0aWZpY2F0ZTAd
BgNVHQ4EFgQUhJEECTgAHaNtk9RLIRbSz8RcbRgwHwYDVR0jBBgwFoAUzThsApJ/
zLYVGx+OFUu0b/uUs2owLgYDVR0RBCcwJYILYmVsZW5vdC5jb22CFmVkZ2UuYWxw
aGEuYmVsZW5vdC5jb20wDQYJKoZIhvcNAQELBQADggEBAAn1ogGuLkJaGFAI0D/z
YJ1Q+MDAlG+P+SrxneYansRQ/L1zOoMOu9qlnN121iGG4EDeKKW0P5sQDiFBIQzO
FYBlY3fRJlo+HmNMWx8msI+jRQiXCQjKs8VTxWCFxJ6CDEWQT/+3dunq/os0L+AG
qAMpvcB0T/xjl9vHIoeoj7L3tK/J/C4S/E2HkrmKRBYOHHnEYCn5RwM+o7nnGISd
WTT5gv3HkVDSvlfD509trf5A9yFF/d08CSeQl0yuBFkVScBDB4v0ooAuw7ujrG3T
fQEHTJ+vBE2q9r3PwAw1Hdw6Wvry2K1bVr9adSB+ngvebYFe9EjutpGzMCVrHz1C
QNY=
-----END CERTIFICATE-----
